; Function Attrs: nounwind uwtable
define noalias noundef nonnull ptr @l_Lean_withTraceNode___at_Lean_Elab_Command_runLinters___spec__4___lambda__1(ptr noundef %0, ptr noundef %1, ptr noundef %2, ptr noundef %3, ptr noundef %4, ptr readnone captures(none) %5, ptr noundef %6, ptr noundef %7, ptr noundef %8) local_unnamed_addr #0 {
  %10 = ptrtoint ptr %6 to i64
  %11 = and i64 %10, 1
  %.not = icmp eq i64 %11, 0
  br i1 %.not, label %12, label %lean_inc.exit17

12:                                               ; preds = %9
  %.val.i = load i32, ptr %6, align 4, !tbaa !4
  %13 = icmp sgt i32 %.val.i, 0
  br i1 %13, label %14, label %16, !prof !13

14:                                               ; preds = %12
  %15 = add nuw i32 %.val.i, 1
  store i32 %15, ptr %6, align 4, !tbaa !4
  br label %lean_inc.exit17

16:                                               ; preds = %12
  %.not.i21 = icmp eq i32 %.val.i, 0
  br i1 %.not.i21, label %lean_inc.exit17, label %17

17:                                               ; preds = %16
  tail call void @lean_inc_ref_cold(ptr noundef nonnull %6) #6
  br label %lean_inc.exit17

lean_inc.exit17:                                  ; preds = %17, %16, %14, %9
  %18 = tail call ptr @l___private_Lean_Util_Trace_0__Lean_addTraceNode___at_Lean_Elab_Command_runLinters___spec__7(ptr noundef %0, ptr noundef %4, ptr noundef %1, ptr noundef %2, ptr noundef %6, ptr noundef %7, ptr noundef %8)
  %19 = getelementptr inbounds nuw i8, ptr %18, i64 16
  %20 = load ptr, ptr %19, align 8, !tbaa !9
  %21 = ptrtoint ptr %20 to i64
  %22 = and i64 %21, 1
  %.not25 = icmp eq i64 %22, 0
  br i1 %.not25, label %23, label %lean_inc.exit

23:                                               ; preds = %lean_inc.exit17
  %.val.i22 = load i32, ptr %20, align 4, !tbaa !4
  %24 = icmp sgt i32 %.val.i22, 0
  br i1 %24, label %25, label %27, !prof !13

25:                                               ; preds = %23
  %26 = add nuw i32 %.val.i22, 1
  store i32 %26, ptr %20, align 4, !tbaa !4
  br label %lean_inc.exit

27:                                               ; preds = %23
  %.not.i23 = icmp eq i32 %.val.i22, 0
  br i1 %.not.i23, label %lean_inc.exit, label %28

28:                                               ; preds = %27
  tail call void @lean_inc_ref_cold(ptr noundef nonnull %20) #6
  br label %lean_inc.exit

lean_inc.exit:                                    ; preds = %28, %27, %25, %lean_inc.exit17
  %29 = ptrtoint ptr %18 to i64
  %30 = and i64 %29, 1
  %.not26 = icmp eq i64 %30, 0
  br i1 %.not26, label %31, label %lean_dec.exit18

31:                                               ; preds = %lean_inc.exit
  %32 = load i32, ptr %18, align 4, !tbaa !4
  %33 = icmp sgt i32 %32, 1
  br i1 %33, label %34, label %36, !prof !13

34:                                               ; preds = %31
  %35 = add nsw i32 %32, -1
  store i32 %35, ptr %18, align 4, !tbaa !4
  br label %lean_dec.exit18

36:                                               ; preds = %31
  %.not.i = icmp eq i32 %32, 0
  br i1 %.not.i, label %lean_dec.exit18, label %37

37:                                               ; preds = %36
  tail call void @lean_dec_ref_cold(ptr noundef nonnull %18) #6
  br label %lean_dec.exit18

lean_dec.exit18:                                  ; preds = %37, %36, %34, %lean_inc.exit
  %38 = tail call ptr @l_MonadExcept_ofExcept___at_Lean_Elab_Command_runLinters___spec__8(ptr noundef %3, ptr poison, ptr poison, ptr noundef %20)
  br i1 %.not, label %39, label %lean_dec.exit

39:                                               ; preds = %lean_dec.exit18
  %40 = load i32, ptr %6, align 4, !tbaa !4
  %41 = icmp sgt i32 %40, 1
  br i1 %41, label %42, label %44, !prof !13

42:                                               ; preds = %39
  %43 = add nsw i32 %40, -1
  store i32 %43, ptr %6, align 4, !tbaa !4
  br label %lean_dec.exit

44:                                               ; preds = %39
  %.not.i19 = icmp eq i32 %40, 0
  br i1 %.not.i19, label %lean_dec.exit, label %45

45:                                               ; preds = %44
  tail call void @lean_dec_ref_cold(ptr noundef nonnull %6) #6
  br label %lean_dec.exit

lean_dec.exit:                                    ; preds = %45, %44, %42, %lean_dec.exit18
  ret ptr %38
}